target datalayout = "e-m:e-p270:32:32-p271:32:32-p272:64:64-i64:64-i128:128-f80:128-n8:16:32:64-S128"
target triple = "x86_64-pc-linux-gnu"

%struct.MOVAtom = type { i32, i64 }
%struct.MOVContext = type { ptr, ptr, i32, i64, i32, i32, i32, i32, i32, i32, ptr, i32, ptr, ptr, i32, %struct.MOVFragment, ptr, i32, i32, i32, ptr, i32, i32, i32, i32, i32, i32, i32, i64, i32, i32, ptr, i32, i32, i32, i32, i32, %struct.MOVFragmentIndex, i32, i32, [20 x i8], [20 x i8], ptr, i32, ptr, i32, ptr, i32, ptr, i32, ptr, ptr, i32, i32, [3 x [3 x i32]], i32, i32, i32, i32, i32, ptr, i32, ptr, i32, i32, i64, i32 }
%struct.MOVFragment = type { i32, i32, i64, i64, i64, i32, i32, i32, i32 }
%struct.MOVFragmentIndex = type { i32, i32, i32, i32, ptr }

@.str.241 = private unnamed_addr constant [9 x i8] c"Anevia\1A\1A\00", align 1

; Function Attrs: nounwind uwtable
define internal i32 @mov_read_free(ptr noundef %0, ptr noundef %1, i32 %2, i64 %3) #0 {
  %5 = alloca i32, align 4
  %6 = alloca %struct.MOVAtom, align 8
  %7 = alloca ptr, align 8
  %8 = alloca ptr, align 8
  %9 = alloca i32, align 4
  %10 = alloca [16 x i8], align 16
  %11 = alloca i32, align 4
  %12 = getelementptr inbounds nuw { i32, i64 }, ptr %6, i32 0, i32 0
  store i32 %2, ptr %12, align 8
  %13 = getelementptr inbounds nuw { i32, i64 }, ptr %6, i32 0, i32 1
  store i64 %3, ptr %13, align 8
  store ptr %0, ptr %7, align 8, !tbaa !4
  store ptr %1, ptr %8, align 8, !tbaa !9
  call void @llvm.lifetime.start.p0(i64 4, ptr %9) #14
  call void @llvm.lifetime.start.p0(i64 16, ptr %10) #14
  %14 = getelementptr inbounds nuw %struct.MOVAtom, ptr %6, i32 0, i32 1
  %15 = load i64, ptr %14, align 8, !tbaa !58
  %16 = icmp slt i64 %15, 8
  br i1 %16, label %17, label %18

17:                                               ; preds = %4
  store i32 0, ptr %5, align 4
  store i32 1, ptr %11, align 4
  br label %59

18:                                               ; preds = %4
  %19 = load ptr, ptr %8, align 8, !tbaa !9
  %20 = getelementptr inbounds [16 x i8], ptr %10, i64 0, i64 0
  %21 = getelementptr inbounds nuw %struct.MOVAtom, ptr %6, i32 0, i32 1
  %22 = load i64, ptr %21, align 8, !tbaa !58
  %23 = icmp ugt i64 16, %22
  br i1 %23, label %24, label %27

24:                                               ; preds = %18
  %25 = getelementptr inbounds nuw %struct.MOVAtom, ptr %6, i32 0, i32 1
  %26 = load i64, ptr %25, align 8, !tbaa !58
  br label %28

27:                                               ; preds = %18
  br label %28

28:                                               ; preds = %27, %24
  %29 = phi i64 [ %26, %24 ], [ 16, %27 ]
  %30 = trunc i64 %29 to i32
  %31 = call i32 @ffio_read_size(ptr noundef %19, ptr noundef %20, i32 noundef %30)
  store i32 %31, ptr %9, align 4, !tbaa !11
  %32 = load i32, ptr %9, align 4, !tbaa !11
  %33 = icmp slt i32 %32, 0
  br i1 %33, label %34, label %36

34:                                               ; preds = %28
  %35 = load i32, ptr %9, align 4, !tbaa !11
  store i32 %35, ptr %5, align 4
  store i32 1, ptr %11, align 4
  br label %59

36:                                               ; preds = %28
  %37 = load ptr, ptr %7, align 8, !tbaa !4
  %38 = getelementptr inbounds nuw %struct.MOVContext, ptr %37, i32 0, i32 4
  %39 = load i32, ptr %38, align 8, !tbaa !146
  %40 = icmp ne i32 %39, 0
  br i1 %40, label %58, label %41

41:                                               ; preds = %36
  %42 = load ptr, ptr %7, align 8, !tbaa !4
  %43 = getelementptr inbounds nuw %struct.MOVContext, ptr %42, i32 0, i32 7
  %44 = load i32, ptr %43, align 4, !tbaa !147
  %45 = icmp ne i32 %44, 0
  br i1 %45, label %58, label %46

46:                                               ; preds = %41
  %47 = getelementptr inbounds [16 x i8], ptr %10, i64 0, i64 0
  %48 = call i32 @memcmp(ptr noundef %47, ptr noundef @.str.241, i64 noundef 8) #17
  %49 = icmp ne i32 %48, 0
  br i1 %49, label %58, label %50

50:                                               ; preds = %46
  %51 = load ptr, ptr %7, align 8, !tbaa !4
  %52 = getelementptr inbounds nuw %struct.MOVContext, ptr %51, i32 0, i32 34
  %53 = load i32, ptr %52, align 8, !tbaa !188
  %54 = icmp eq i32 %53, -1
  br i1 %54, label %55, label %58

55:                                               ; preds = %50
  %56 = load ptr, ptr %7, align 8, !tbaa !4
  %57 = getelementptr inbounds nuw %struct.MOVContext, ptr %56, i32 0, i32 34
  store i32 2, ptr %57, align 8, !tbaa !188
  br label %58

58:                                               ; preds = %55, %50, %46, %41, %36
  store i32 0, ptr %5, align 4
  store i32 1, ptr %11, align 4
  br label %59

59:                                               ; preds = %58, %34, %17
  call void @llvm.lifetime.end.p0(i64 16, ptr %10) #14
  call void @llvm.lifetime.end.p0(i64 4, ptr %9) #14
  %60 = load i32, ptr %5, align 4
  ret i32 %60
}