; Function Attrs: nounwind uwtable
define internal range(i32 -2147483648, 1) i32 @mov_read_free(ptr noundef captures(none) %0, ptr noundef %1, i32 %2, i64 %3) #0 {
  %5 = alloca [16 x i8], align 16
  call void @llvm.lifetime.start.p0(i64 16, ptr nonnull %5) #16
  %6 = icmp slt i64 %3, 8
  br i1 %6, label %23, label %7

7:                                                ; preds = %4
  %8 = tail call i64 @llvm.umin.i64(i64 %3, i64 16)
  %9 = trunc nuw nsw i64 %8 to i32
  %10 = call i32 @ffio_read_size(ptr noundef %1, ptr noundef nonnull %5, i32 noundef %9) #16
  %11 = icmp slt i32 %10, 0
  br i1 %11, label %23, label %12

12:                                               ; preds = %7
  %13 = getelementptr inbounds nuw i8, ptr %0, i64 32
  %14 = load i32, ptr %13, align 8, !tbaa !135
  %.not = icmp eq i32 %14, 0
  br i1 %.not, label %15, label %23

15:                                               ; preds = %12
  %16 = getelementptr inbounds nuw i8, ptr %0, i64 44
  %17 = load i32, ptr %16, align 4, !tbaa !136
  %.not11 = icmp eq i32 %17, 0
  %lhsv = load i64, ptr %5, align 16
  %.not12 = icmp eq i64 %lhsv, 1880922899966422593
  %or.cond = select i1 %.not11, i1 %.not12, i1 false
  br i1 %or.cond, label %18, label %23

18:                                               ; preds = %15
  %19 = getelementptr inbounds nuw i8, ptr %0, i64 240
  %20 = load i32, ptr %19, align 8, !tbaa !269
  %21 = icmp eq i32 %20, -1
  br i1 %21, label %22, label %23

22:                                               ; preds = %18
  store i32 2, ptr %19, align 8, !tbaa !269
  br label %23

23:                                               ; preds = %12, %15, %18, %22, %7, %4
  %.0 = phi i32 [ 0, %4 ], [ %10, %7 ], [ 0, %22 ], [ 0, %18 ], [ 0, %15 ], [ 0, %12 ]
  call void @llvm.lifetime.end.p0(i64 16, ptr nonnull %5) #16
  ret i32 %.0
}